target datalayout = "e-m:e-p270:32:32-p271:32:32-p272:64:64-i64:64-i128:128-f80:128-n8:16:32:64-S128"
target triple = "x86_64-pc-linux-gnu"

%struct._lv_dropdown_t = type { %struct._lv_obj_t, ptr, ptr, ptr, ptr, i32, i32, i32, i32, i8 }
%struct._lv_obj_t = type { ptr, ptr, ptr, ptr, ptr, %struct.lv_area_t, i32, i16, i16 }
%struct.lv_area_t = type { i32, i32, i32, i32 }

; Function Attrs: nounwind uwtable
define void @lv_dropdown_set_options(ptr noundef %0, ptr noundef %1) #0 {
  %3 = alloca ptr, align 8
  %4 = alloca ptr, align 8
  %5 = alloca ptr, align 8
  %6 = alloca i32, align 4
  %7 = alloca i64, align 8
  %8 = alloca i32, align 4
  store ptr %0, ptr %3, align 8, !tbaa !3
  store ptr %1, ptr %4, align 8, !tbaa !3
  br label %9

9:                                                ; preds = %2
  br label %10

10:                                               ; preds = %9
  br label %11

11:                                               ; preds = %10
  %12 = load ptr, ptr %4, align 8, !tbaa !3
  %13 = icmp ne ptr %12, null
  br i1 %13, label %18, label %14

14:                                               ; preds = %11
  br label %15

15:                                               ; preds = %14
  br label %16

16:                                               ; preds = %15
  br label %17

17:                                               ; preds = %16, %17
  br label %17

18:                                               ; preds = %11
  br label %19

19:                                               ; preds = %18
  call void @llvm.lifetime.start.p0(i64 8, ptr %5) #5
  %20 = load ptr, ptr %3, align 8, !tbaa !3
  store ptr %20, ptr %5, align 8, !tbaa !3
  %21 = load ptr, ptr %5, align 8, !tbaa !3
  %22 = getelementptr inbounds nuw %struct._lv_dropdown_t, ptr %21, i32 0, i32 5
  store i32 0, ptr %22, align 8, !tbaa !19
  call void @llvm.lifetime.start.p0(i64 4, ptr %6) #5
  store i32 0, ptr %6, align 4, !tbaa !22
  br label %23

23:                                               ; preds = %45, %19
  %24 = load ptr, ptr %4, align 8, !tbaa !3
  %25 = load i32, ptr %6, align 4, !tbaa !22
  %26 = zext i32 %25 to i64
  %27 = getelementptr inbounds nuw i8, ptr %24, i64 %26
  %28 = load i8, ptr %27, align 1, !tbaa !29
  %29 = sext i8 %28 to i32
  %30 = icmp ne i32 %29, 0
  br i1 %30, label %31, label %48

31:                                               ; preds = %23
  %32 = load ptr, ptr %4, align 8, !tbaa !3
  %33 = load i32, ptr %6, align 4, !tbaa !22
  %34 = zext i32 %33 to i64
  %35 = getelementptr inbounds nuw i8, ptr %32, i64 %34
  %36 = load i8, ptr %35, align 1, !tbaa !29
  %37 = sext i8 %36 to i32
  %38 = icmp eq i32 %37, 10
  br i1 %38, label %39, label %44

39:                                               ; preds = %31
  %40 = load ptr, ptr %5, align 8, !tbaa !3
  %41 = getelementptr inbounds nuw %struct._lv_dropdown_t, ptr %40, i32 0, i32 5
  %42 = load i32, ptr %41, align 8, !tbaa !19
  %43 = add i32 %42, 1
  store i32 %43, ptr %41, align 8, !tbaa !19
  br label %44

44:                                               ; preds = %39, %31
  br label %45

45:                                               ; preds = %44
  %46 = load i32, ptr %6, align 4, !tbaa !22
  %47 = add i32 %46, 1
  store i32 %47, ptr %6, align 4, !tbaa !22
  br label %23, !llvm.loop !30

48:                                               ; preds = %23
  %49 = load ptr, ptr %5, align 8, !tbaa !3
  %50 = getelementptr inbounds nuw %struct._lv_dropdown_t, ptr %49, i32 0, i32 5
  %51 = load i32, ptr %50, align 8, !tbaa !19
  %52 = add i32 %51, 1
  store i32 %52, ptr %50, align 8, !tbaa !19
  %53 = load ptr, ptr %5, align 8, !tbaa !3
  %54 = getelementptr inbounds nuw %struct._lv_dropdown_t, ptr %53, i32 0, i32 6
  store i32 0, ptr %54, align 4, !tbaa !16
  %55 = load ptr, ptr %5, align 8, !tbaa !3
  %56 = getelementptr inbounds nuw %struct._lv_dropdown_t, ptr %55, i32 0, i32 7
  store i32 0, ptr %56, align 8, !tbaa !17
  call void @llvm.lifetime.start.p0(i64 8, ptr %7) #5
  %57 = load ptr, ptr %4, align 8, !tbaa !3
  %58 = call i64 @lv_strlen(ptr noundef %57)
  %59 = add i64 %58, 1
  store i64 %59, ptr %7, align 8, !tbaa !32
  %60 = load ptr, ptr %5, align 8, !tbaa !3
  %61 = getelementptr inbounds nuw %struct._lv_dropdown_t, ptr %60, i32 0, i32 4
  %62 = load ptr, ptr %61, align 8, !tbaa !13
  %63 = icmp ne ptr %62, null
  br i1 %63, label %64, label %78

64:                                               ; preds = %48
  %65 = load ptr, ptr %5, align 8, !tbaa !3
  %66 = getelementptr inbounds nuw %struct._lv_dropdown_t, ptr %65, i32 0, i32 9
  %67 = load i8, ptr %66, align 8
  %68 = lshr i8 %67, 4
  %69 = and i8 %68, 1
  %70 = zext i8 %69 to i32
  %71 = icmp eq i32 %70, 0
  br i1 %71, label %72, label %78

72:                                               ; preds = %64
  %73 = load ptr, ptr %5, align 8, !tbaa !3
  %74 = getelementptr inbounds nuw %struct._lv_dropdown_t, ptr %73, i32 0, i32 4
  %75 = load ptr, ptr %74, align 8, !tbaa !13
  call void @lv_free(ptr noundef %75)
  %76 = load ptr, ptr %5, align 8, !tbaa !3
  %77 = getelementptr inbounds nuw %struct._lv_dropdown_t, ptr %76, i32 0, i32 4
  store ptr null, ptr %77, align 8, !tbaa !13
  br label %78

78:                                               ; preds = %72, %64, %48
  %79 = load i64, ptr %7, align 8, !tbaa !32
  %80 = call ptr @lv_malloc(i64 noundef %79)
  %81 = load ptr, ptr %5, align 8, !tbaa !3
  %82 = getelementptr inbounds nuw %struct._lv_dropdown_t, ptr %81, i32 0, i32 4
  store ptr %80, ptr %82, align 8, !tbaa !13
  br label %83

83:                                               ; preds = %78
  %84 = load ptr, ptr %5, align 8, !tbaa !3
  %85 = getelementptr inbounds nuw %struct._lv_dropdown_t, ptr %84, i32 0, i32 4
  %86 = load ptr, ptr %85, align 8, !tbaa !13
  %87 = icmp ne ptr %86, null
  br i1 %87, label %94, label %88

88:                                               ; preds = %83
  br label %89

89:                                               ; preds = %88
  br label %90

90:                                               ; preds = %89
  br label %91

91:                                               ; preds = %90
  br label %92

92:                                               ; preds = %93, %91
  br label %93

93:                                               ; preds = %92
  br label %92

94:                                               ; preds = %83
  br label %95

95:                                               ; preds = %94
  br label %96

96:                                               ; preds = %95
  %97 = load ptr, ptr %5, align 8, !tbaa !3
  %98 = getelementptr inbounds nuw %struct._lv_dropdown_t, ptr %97, i32 0, i32 4
  %99 = load ptr, ptr %98, align 8, !tbaa !13
  %100 = icmp eq ptr %99, null
  br i1 %100, label %101, label %102

101:                                              ; preds = %96
  store i32 1, ptr %8, align 4
  br label %123

102:                                              ; preds = %96
  %103 = load ptr, ptr %5, align 8, !tbaa !3
  %104 = getelementptr inbounds nuw %struct._lv_dropdown_t, ptr %103, i32 0, i32 4
  %105 = load ptr, ptr %104, align 8, !tbaa !13
  %106 = load ptr, ptr %4, align 8, !tbaa !3
  %107 = call ptr @lv_strcpy(ptr noundef %105, ptr noundef %106)
  %108 = load ptr, ptr %5, align 8, !tbaa !3
  %109 = getelementptr inbounds nuw %struct._lv_dropdown_t, ptr %108, i32 0, i32 9
  %110 = load i8, ptr %109, align 8
  %111 = and i8 %110, -17
  %112 = or i8 %111, 0
  store i8 %112, ptr %109, align 8
  %113 = load ptr, ptr %3, align 8, !tbaa !3
  call void @lv_obj_invalidate(ptr noundef %113)
  %114 = load ptr, ptr %5, align 8, !tbaa !3
  %115 = getelementptr inbounds nuw %struct._lv_dropdown_t, ptr %114, i32 0, i32 1
  %116 = load ptr, ptr %115, align 8, !tbaa !7
  %117 = icmp ne ptr %116, null
  br i1 %117, label %118, label %122

118:                                              ; preds = %102
  %119 = load ptr, ptr %5, align 8, !tbaa !3
  %120 = getelementptr inbounds nuw %struct._lv_dropdown_t, ptr %119, i32 0, i32 1
  %121 = load ptr, ptr %120, align 8, !tbaa !7
  call void @lv_obj_invalidate(ptr noundef %121)
  br label %122

122:                                              ; preds = %118, %102
  store i32 0, ptr %8, align 4
  br label %123

123:                                              ; preds = %122, %101
  call void @llvm.lifetime.end.p0(i64 8, ptr %7) #5
  call void @llvm.lifetime.end.p0(i64 4, ptr %6) #5
  call void @llvm.lifetime.end.p0(i64 8, ptr %5) #5
  %124 = load i32, ptr %8, align 4
  switch i32 %124, label %126 [
    i32 0, label %125
    i32 1, label %125
  ]

125:                                              ; preds = %123, %123
  ret void

126:                                              ; preds = %123
  unreachable
}