; Function Attrs: nounwind uwtable
define void @lv_dropdown_set_options(ptr noundef %0, ptr noundef %1) local_unnamed_addr #0 {
  %.not = icmp eq ptr %1, null
  br i1 %.not, label %.preheader, label %3

.preheader:                                       ; preds = %2, %.preheader
  br label %.preheader

3:                                                ; preds = %2
  %4 = getelementptr inbounds nuw i8, ptr %0, i64 96
  store i32 0, ptr %4, align 8, !tbaa !18
  br label %5

5:                                                ; preds = %12, %3
  %6 = phi i32 [ 0, %3 ], [ %13, %12 ]
  %.0 = phi i32 [ 0, %3 ], [ %14, %12 ]
  %7 = zext i32 %.0 to i64
  %8 = getelementptr inbounds nuw i8, ptr %1, i64 %7
  %9 = load i8, ptr %8, align 1, !tbaa !19
  switch i8 %9, label %12 [
    i8 0, label %15
    i8 10, label %10
  ]

10:                                               ; preds = %5
  %11 = add i32 %6, 1
  store i32 %11, ptr %4, align 8, !tbaa !18
  br label %12

12:                                               ; preds = %5, %10
  %13 = phi i32 [ %6, %5 ], [ %11, %10 ]
  %14 = add i32 %.0, 1
  br label %5, !llvm.loop !29

15:                                               ; preds = %5
  %16 = add i32 %6, 1
  store i32 %16, ptr %4, align 8, !tbaa !18
  %17 = getelementptr inbounds nuw i8, ptr %0, i64 100
  store i32 0, ptr %17, align 4, !tbaa !15
  %18 = getelementptr inbounds nuw i8, ptr %0, i64 104
  store i32 0, ptr %18, align 8, !tbaa !16
  %19 = tail call i64 @lv_strlen(ptr noundef nonnull %1) #7
  %20 = add i64 %19, 1
  %21 = getelementptr inbounds nuw i8, ptr %0, i64 88
  %22 = load ptr, ptr %21, align 8, !tbaa !12
  %.not32 = icmp eq ptr %22, null
  br i1 %.not32, label %29, label %23

23:                                               ; preds = %15
  %24 = getelementptr inbounds nuw i8, ptr %0, i64 112
  %25 = load i8, ptr %24, align 8
  %26 = and i8 %25, 16
  %27 = icmp eq i8 %26, 0
  br i1 %27, label %28, label %29

28:                                               ; preds = %23
  tail call void @lv_free(ptr noundef nonnull %22) #7
  store ptr null, ptr %21, align 8, !tbaa !12
  br label %29

29:                                               ; preds = %28, %23, %15
  %30 = tail call ptr @lv_malloc(i64 noundef %20) #7
  store ptr %30, ptr %21, align 8, !tbaa !12
  %.not33 = icmp eq ptr %30, null
  br i1 %.not33, label %.preheader35, label %31

.preheader35:                                     ; preds = %29, %.preheader35
  br label %.preheader35

31:                                               ; preds = %29
  %32 = tail call ptr @lv_strcpy(ptr noundef nonnull %30, ptr noundef nonnull %1) #7
  %33 = getelementptr inbounds nuw i8, ptr %0, i64 112
  %34 = load i8, ptr %33, align 8
  %35 = and i8 %34, -17
  store i8 %35, ptr %33, align 8
  tail call void @lv_obj_invalidate(ptr noundef nonnull %0) #7
  %36 = getelementptr inbounds nuw i8, ptr %0, i64 64
  %37 = load ptr, ptr %36, align 8, !tbaa !3
  %.not34 = icmp eq ptr %37, null
  br i1 %.not34, label %39, label %38

38:                                               ; preds = %31
  tail call void @lv_obj_invalidate(ptr noundef nonnull %37) #7
  br label %39

39:                                               ; preds = %31, %38
  ret void
}